; ModuleID = '43/207.c'
source_filename = "43/207.c"
target datalayout = "e-m:e-p270:32:32-p271:32:32-p272:64:64-i64:64-f80:128-n8:16:32:64-S128"
target triple = "x86_64-pc-linux-gnu"

@.str = private unnamed_addr constant [3 x i8] c"%d\00", align 1
@.str.1 = private unnamed_addr constant [7 x i8] c"%d %d\0A\00", align 1

; Function Attrs: noinline nounwind uwtable
define dso_local i32 @main() #0 {
  %1 = alloca i32, align 4
  %2 = alloca i32, align 4
  %3 = alloca i32, align 4
  %4 = alloca i32, align 4
  %5 = alloca i32, align 4
  %6 = alloca i32, align 4
  store i32 0, i32* %1, align 4
  %7 = call i32 (i8*, ...) @__isoc99_scanf(i8* getelementptr inbounds ([3 x i8], [3 x i8]* @.str, i64 0, i64 0), i32* %2)
  store i32 3, i32* %5, align 4
  br label %8

8:                                                ; preds = %86, %0
  %9 = load i32, i32* %5, align 4
  %10 = load i32, i32* %2, align 4
  %11 = sdiv i32 %10, 2
  %12 = icmp sle i32 %9, %11
  br i1 %12, label %13, label %89

13:                                               ; preds = %8
  store i32 2, i32* %6, align 4
  br label %14

14:                                               ; preds = %28, %13
  %15 = load i32, i32* %6, align 4
  %16 = sitofp i32 %15 to double
  %17 = load i32, i32* %5, align 4
  %18 = sitofp i32 %17 to double
  %19 = call double @sqrt(double %18) #3
  %20 = fcmp ole double %16, %19
  br i1 %20, label %21, label %31

21:                                               ; preds = %14
  %22 = load i32, i32* %5, align 4
  %23 = load i32, i32* %6, align 4
  %24 = srem i32 %22, %23
  %25 = icmp eq i32 %24, 0
  br i1 %25, label %26, label %27

26:                                               ; preds = %21
  br label %31

27:                                               ; preds = %21
  br label %28

28:                                               ; preds = %27
  %29 = load i32, i32* %6, align 4
  %30 = add nsw i32 %29, 1
  store i32 %30, i32* %6, align 4
  br label %14

31:                                               ; preds = %26, %14
  %32 = load i32, i32* %6, align 4
  %33 = sitofp i32 %32 to double
  %34 = load i32, i32* %5, align 4
  %35 = sitofp i32 %34 to double
  %36 = call double @sqrt(double %35) #3
  %37 = fcmp ogt double %33, %36
  br i1 %37, label %38, label %39

38:                                               ; preds = %31
  store i32 1, i32* %3, align 4
  br label %40

39:                                               ; preds = %31
  store i32 0, i32* %3, align 4
  br label %40

40:                                               ; preds = %39, %38
  store i32 2, i32* %6, align 4
  br label %41

41:                                               ; preds = %59, %40
  %42 = load i32, i32* %6, align 4
  %43 = sitofp i32 %42 to double
  %44 = load i32, i32* %2, align 4
  %45 = load i32, i32* %5, align 4
  %46 = sub nsw i32 %44, %45
  %47 = sitofp i32 %46 to double
  %48 = call double @sqrt(double %47) #3
  %49 = fcmp ole double %43, %48
  br i1 %49, label %50, label %62

50:                                               ; preds = %41
  %51 = load i32, i32* %2, align 4
  %52 = load i32, i32* %5, align 4
  %53 = sub nsw i32 %51, %52
  %54 = load i32, i32* %6, align 4
  %55 = srem i32 %53, %54
  %56 = icmp eq i32 %55, 0
  br i1 %56, label %57, label %58

57:                                               ; preds = %50
  br label %62

58:                                               ; preds = %50
  br label %59

59:                                               ; preds = %58
  %60 = load i32, i32* %6, align 4
  %61 = add nsw i32 %60, 1
  store i32 %61, i32* %6, align 4
  br label %41

62:                                               ; preds = %57, %41
  %63 = load i32, i32* %6, align 4
  %64 = sitofp i32 %63 to double
  %65 = load i32, i32* %2, align 4
  %66 = load i32, i32* %5, align 4
  %67 = sub nsw i32 %65, %66
  %68 = sitofp i32 %67 to double
  %69 = call double @sqrt(double %68) #3
  %70 = fcmp ogt double %64, %69
  br i1 %70, label %71, label %72

71:                                               ; preds = %62
  store i32 1, i32* %4, align 4
  br label %73

72:                                               ; preds = %62
  store i32 0, i32* %4, align 4
  br label %73

73:                                               ; preds = %72, %71
  %74 = load i32, i32* %3, align 4
  %75 = icmp eq i32 %74, 1
  br i1 %75, label %76, label %85

76:                                               ; preds = %73
  %77 = load i32, i32* %4, align 4
  %78 = icmp eq i32 %77, 1
  br i1 %78, label %79, label %85

79:                                               ; preds = %76
  %80 = load i32, i32* %5, align 4
  %81 = load i32, i32* %2, align 4
  %82 = load i32, i32* %5, align 4
  %83 = sub nsw i32 %81, %82
  %84 = call i32 (i8*, ...) @printf(i8* getelementptr inbounds ([7 x i8], [7 x i8]* @.str.1, i64 0, i64 0), i32 %80, i32 %83)
  br label %85

85:                                               ; preds = %79, %76, %73
  br label %86

86:                                               ; preds = %85
  %87 = load i32, i32* %5, align 4
  %88 = add nsw i32 %87, 2
  store i32 %88, i32* %5, align 4
  br label %8

89:                                               ; preds = %8
  ret i32 0
}

declare dso_local i32 @__isoc99_scanf(i8*, ...) #1

; Function Attrs: nounwind
declare dso_local double @sqrt(double) #2

declare dso_local i32 @printf(i8*, ...) #1


!llvm.module.flags = !{!0}
!llvm.ident = !{!1}

!0 = !{i32 1, !"wchar_size", i32 4}
!1 = !{!"clang version 10.0.0-4ubuntu1 "}
